target datalayout = "e-m:e-p270:32:32-p271:32:32-p272:64:64-i64:64-i128:128-f80:128-n8:16:32:64-S128"
target triple = "x86_64-pc-linux-gnu"

%struct.Hop_Obj_t_ = type { %union.anon, %union.anon.0, ptr, ptr, i32, i32 }
%union.anon = type { ptr }
%union.anon.0 = type { ptr }
%struct.Hop_Man_t_ = type { ptr, ptr, ptr, ptr, %struct.Hop_Obj_t_, [6 x i32], i32, i32, ptr, i32, ptr, i32, i32, i32, ptr, ptr, ptr, i64, i64 }

; Function Attrs: nounwind uwtable
define internal i32 @Hop_IsComplement(ptr noundef %0) #0 {
  %2 = alloca ptr, align 8
  store ptr %0, ptr %2, align 8
  %3 = load ptr, ptr %2, align 8
  %4 = ptrtoint ptr %3 to i64
  %5 = and i64 %4, 1
  %6 = trunc i64 %5 to i32
  ret i32 %6
}

; Function Attrs: nounwind uwtable
define internal i32 @Abc_MaxInt(i32 noundef %0, i32 noundef %1) #0 {
  %3 = alloca i32, align 4
  %4 = alloca i32, align 4
  store i32 %0, ptr %3, align 4
  store i32 %1, ptr %4, align 4
  %5 = load i32, ptr %3, align 4
  %6 = load i32, ptr %4, align 4
  %7 = icmp sgt i32 %5, %6
  br i1 %7, label %8, label %10

8:                                                ; preds = %2
  %9 = load i32, ptr %3, align 4
  br label %12

10:                                               ; preds = %2
  %11 = load i32, ptr %4, align 4
  br label %12

12:                                               ; preds = %10, %8
  %13 = phi i32 [ %9, %8 ], [ %11, %10 ]
  ret i32 %13
}

; Function Attrs: nounwind uwtable
define internal i32 @Hop_ObjIsExor(ptr noundef %0) #0 {
  %2 = alloca ptr, align 8
  store ptr %0, ptr %2, align 8
  %3 = load ptr, ptr %2, align 8
  %4 = getelementptr inbounds %struct.Hop_Obj_t_, ptr %3, i32 0, i32 4
  %5 = load i32, ptr %4, align 8
  %6 = and i32 %5, 7
  %7 = icmp eq i32 %6, 5
  %8 = zext i1 %7 to i32
  ret i32 %8
}

; Function Attrs: nounwind uwtable
define internal ptr @Hop_Regular(ptr noundef %0) #0 {
  %2 = alloca ptr, align 8
  store ptr %0, ptr %2, align 8
  %3 = load ptr, ptr %2, align 8
  %4 = ptrtoint ptr %3 to i64
  %5 = and i64 %4, -2
  %6 = inttoptr i64 %5 to ptr
  ret ptr %6
}

; Function Attrs: nounwind uwtable
define internal i32 @Hop_ObjPhaseCompl(ptr noundef %0) #0 {
  %2 = alloca ptr, align 8
  store ptr %0, ptr %2, align 8
  %3 = load ptr, ptr %2, align 8
  %4 = call i32 @Hop_IsComplement(ptr noundef %3)
  %5 = icmp ne i32 %4, 0
  br i1 %5, label %6, label %16

6:                                                ; preds = %1
  %7 = load ptr, ptr %2, align 8
  %8 = call ptr @Hop_Regular(ptr noundef %7)
  %9 = getelementptr inbounds %struct.Hop_Obj_t_, ptr %8, i32 0, i32 4
  %10 = load i32, ptr %9, align 8
  %11 = lshr i32 %10, 3
  %12 = and i32 %11, 1
  %13 = icmp ne i32 %12, 0
  %14 = xor i1 %13, true
  %15 = zext i1 %14 to i32
  br label %22

16:                                               ; preds = %1
  %17 = load ptr, ptr %2, align 8
  %18 = getelementptr inbounds %struct.Hop_Obj_t_, ptr %17, i32 0, i32 4
  %19 = load i32, ptr %18, align 8
  %20 = lshr i32 %19, 3
  %21 = and i32 %20, 1
  br label %22

22:                                               ; preds = %16, %6
  %23 = phi i32 [ %15, %6 ], [ %21, %16 ]
  ret i32 %23
}

; Function Attrs: nounwind uwtable
define internal i32 @Hop_ObjLevelNew(ptr noundef %0) #0 {
  %2 = alloca ptr, align 8
  store ptr %0, ptr %2, align 8
  %3 = load ptr, ptr %2, align 8
  %4 = call i32 @Hop_ObjIsExor(ptr noundef %3)
  %5 = add nsw i32 1, %4
  %6 = load ptr, ptr %2, align 8
  %7 = call ptr @Hop_ObjFanin0(ptr noundef %6)
  %8 = getelementptr inbounds %struct.Hop_Obj_t_, ptr %7, i32 0, i32 4
  %9 = load i32, ptr %8, align 8
  %10 = lshr i32 %9, 6
  %11 = load ptr, ptr %2, align 8
  %12 = call ptr @Hop_ObjFanin1(ptr noundef %11)
  %13 = getelementptr inbounds %struct.Hop_Obj_t_, ptr %12, i32 0, i32 4
  %14 = load i32, ptr %13, align 8
  %15 = lshr i32 %14, 6
  %16 = call i32 @Abc_MaxInt(i32 noundef %10, i32 noundef %15)
  %17 = add nsw i32 %5, %16
  ret i32 %17
}

; Function Attrs: nounwind uwtable
define internal ptr @Hop_ObjFanin1(ptr noundef %0) #0 {
  %2 = alloca ptr, align 8
  store ptr %0, ptr %2, align 8
  %3 = load ptr, ptr %2, align 8
  %4 = getelementptr inbounds %struct.Hop_Obj_t_, ptr %3, i32 0, i32 3
  %5 = load ptr, ptr %4, align 8
  %6 = call ptr @Hop_Regular(ptr noundef %5)
  ret ptr %6
}

; Function Attrs: nounwind uwtable
define internal void @Hop_ObjRef(ptr noundef %0) #0 {
  %2 = alloca ptr, align 8
  store ptr %0, ptr %2, align 8
  %3 = load ptr, ptr %2, align 8
  %4 = getelementptr inbounds %struct.Hop_Obj_t_, ptr %3, i32 0, i32 4
  %5 = load i32, ptr %4, align 8
  %6 = lshr i32 %5, 6
  %7 = add i32 %6, 1
  %8 = load i32, ptr %4, align 8
  %9 = and i32 %7, 67108863
  %10 = shl i32 %9, 6
  %11 = and i32 %8, 63
  %12 = or i32 %11, %10
  store i32 %12, ptr %4, align 8
  ret void
}

; Function Attrs: nounwind uwtable
define internal ptr @Hop_ObjFanin0(ptr noundef %0) #0 {
  %2 = alloca ptr, align 8
  store ptr %0, ptr %2, align 8
  %3 = load ptr, ptr %2, align 8
  %4 = getelementptr inbounds %struct.Hop_Obj_t_, ptr %3, i32 0, i32 2
  %5 = load ptr, ptr %4, align 8
  %6 = call ptr @Hop_Regular(ptr noundef %5)
  ret ptr %6
}

; Function Attrs: nounwind uwtable
define void @Hop_ObjConnect(ptr noundef %0, ptr noundef %1, ptr noundef %2, ptr noundef %3) #0 {
  %5 = alloca ptr, align 8
  %6 = alloca ptr, align 8
  %7 = alloca ptr, align 8
  %8 = alloca ptr, align 8
  store ptr %0, ptr %5, align 8
  store ptr %1, ptr %6, align 8
  store ptr %2, ptr %7, align 8
  store ptr %3, ptr %8, align 8
  %9 = load ptr, ptr %7, align 8
  %10 = load ptr, ptr %6, align 8
  %11 = getelementptr inbounds %struct.Hop_Obj_t_, ptr %10, i32 0, i32 2
  store ptr %9, ptr %11, align 8
  %12 = load ptr, ptr %8, align 8
  %13 = load ptr, ptr %6, align 8
  %14 = getelementptr inbounds %struct.Hop_Obj_t_, ptr %13, i32 0, i32 3
  store ptr %12, ptr %14, align 8
  %15 = load ptr, ptr %5, align 8
  %16 = getelementptr inbounds %struct.Hop_Man_t_, ptr %15, i32 0, i32 12
  %17 = load i32, ptr %16, align 4
  %18 = icmp ne i32 %17, 0
  br i1 %18, label %19, label %32

19:                                               ; preds = %4
  %20 = load ptr, ptr %7, align 8
  %21 = icmp ne ptr %20, null
  br i1 %21, label %22, label %25

22:                                               ; preds = %19
  %23 = load ptr, ptr %6, align 8
  %24 = call ptr @Hop_ObjFanin0(ptr noundef %23)
  call void @Hop_ObjRef(ptr noundef %24)
  br label %25

25:                                               ; preds = %22, %19
  %26 = load ptr, ptr %8, align 8
  %27 = icmp ne ptr %26, null
  br i1 %27, label %28, label %31

28:                                               ; preds = %25
  %29 = load ptr, ptr %6, align 8
  %30 = call ptr @Hop_ObjFanin1(ptr noundef %29)
  call void @Hop_ObjRef(ptr noundef %30)
  br label %31

31:                                               ; preds = %28, %25
  br label %42

32:                                               ; preds = %4
  %33 = load ptr, ptr %6, align 8
  %34 = call i32 @Hop_ObjLevelNew(ptr noundef %33)
  %35 = load ptr, ptr %6, align 8
  %36 = getelementptr inbounds %struct.Hop_Obj_t_, ptr %35, i32 0, i32 4
  %37 = load i32, ptr %36, align 8
  %38 = and i32 %34, 67108863
  %39 = shl i32 %38, 6
  %40 = and i32 %37, 63
  %41 = or i32 %40, %39
  store i32 %41, ptr %36, align 8
  br label %42

42:                                               ; preds = %32, %31
  %43 = load ptr, ptr %7, align 8
  %44 = call i32 @Hop_ObjPhaseCompl(ptr noundef %43)
  %45 = load ptr, ptr %8, align 8
  %46 = call i32 @Hop_ObjPhaseCompl(ptr noundef %45)
  %47 = and i32 %44, %46
  %48 = load ptr, ptr %6, align 8
  %49 = getelementptr inbounds %struct.Hop_Obj_t_, ptr %48, i32 0, i32 4
  %50 = load i32, ptr %49, align 8
  %51 = and i32 %47, 1
  %52 = shl i32 %51, 3
  %53 = and i32 %50, -9
  %54 = or i32 %53, %52
  store i32 %54, ptr %49, align 8
  %55 = load ptr, ptr %5, align 8
  %56 = load ptr, ptr %6, align 8
  call void @Hop_TableInsert(ptr noundef %55, ptr noundef %56)
  ret void
}