; Function Attrs: nounwind uwtable
define void @Hop_ObjConnect(ptr noundef %0, ptr noundef initializes((16, 32)) %1, ptr noundef %2, ptr noundef %3) local_unnamed_addr #0 {
  %5 = getelementptr inbounds nuw i8, ptr %1, i64 16
  store ptr %2, ptr %5, align 8
  %6 = getelementptr inbounds nuw i8, ptr %1, i64 24
  store ptr %3, ptr %6, align 8
  %7 = getelementptr inbounds nuw i8, ptr %0, i64 132
  %8 = load i32, ptr %7, align 4
  %.not = icmp eq i32 %8, 0
  br i1 %.not, label %31, label %9

9:                                                ; preds = %4
  %.not16 = icmp eq ptr %2, null
  br i1 %.not16, label %20, label %10

10:                                               ; preds = %9
  %11 = ptrtoint ptr %2 to i64
  %12 = and i64 %11, -2
  %13 = inttoptr i64 %12 to ptr
  %14 = getelementptr inbounds nuw i8, ptr %13, i64 32
  %15 = load i32, ptr %14, align 8
  %16 = and i32 %15, -64
  %17 = add i32 %16, 64
  %18 = and i32 %15, 63
  %19 = or disjoint i32 %17, %18
  store i32 %19, ptr %14, align 8
  br label %20

20:                                               ; preds = %10, %9
  %.not17 = icmp eq ptr %3, null
  br i1 %.not17, label %53, label %21

21:                                               ; preds = %20
  %.val18 = load ptr, ptr %6, align 8
  %22 = ptrtoint ptr %.val18 to i64
  %23 = and i64 %22, -2
  %24 = inttoptr i64 %23 to ptr
  %25 = getelementptr inbounds nuw i8, ptr %24, i64 32
  %26 = load i32, ptr %25, align 8
  %27 = and i32 %26, -64
  %28 = add i32 %27, 64
  %29 = and i32 %26, 63
  %30 = or disjoint i32 %28, %29
  store i32 %30, ptr %25, align 8
  br label %53

31:                                               ; preds = %4
  %32 = getelementptr i8, ptr %1, i64 32
  %.val4.i = load i32, ptr %32, align 8
  %33 = and i32 %.val4.i, 7
  %34 = icmp eq i32 %33, 5
  %35 = select i1 %34, i32 2, i32 1
  %36 = ptrtoint ptr %2 to i64
  %37 = and i64 %36, -2
  %38 = inttoptr i64 %37 to ptr
  %39 = getelementptr inbounds nuw i8, ptr %38, i64 32
  %40 = load i32, ptr %39, align 8
  %41 = lshr i32 %40, 6
  %42 = ptrtoint ptr %3 to i64
  %43 = and i64 %42, -2
  %44 = inttoptr i64 %43 to ptr
  %45 = getelementptr inbounds nuw i8, ptr %44, i64 32
  %46 = load i32, ptr %45, align 8
  %47 = lshr i32 %46, 6
  %48 = tail call range(i32 0, 67108864) i32 @llvm.umax.i32(i32 range(i32 0, 67108864) %41, i32 range(i32 0, 67108864) %47)
  %49 = add nuw nsw i32 %48, %35
  %50 = shl i32 %49, 6
  %51 = and i32 %.val4.i, 63
  %52 = or disjoint i32 %50, %51
  store i32 %52, ptr %32, align 8
  br label %53

53:                                               ; preds = %20, %21, %31
  %54 = ptrtoint ptr %2 to i64
  %55 = and i64 %54, 1
  %.not.i = icmp eq i64 %55, 0
  br i1 %.not.i, label %62, label %56

56:                                               ; preds = %53
  %57 = and i64 %54, -2
  %58 = inttoptr i64 %57 to ptr
  %59 = getelementptr inbounds nuw i8, ptr %58, i64 32
  %60 = load i32, ptr %59, align 8
  %.lobit.i = and i32 %60, 8
  %61 = xor i32 %.lobit.i, 8
  br label %Hop_ObjPhaseCompl.exit

62:                                               ; preds = %53
  %63 = getelementptr inbounds nuw i8, ptr %2, i64 32
  %64 = load i32, ptr %63, align 8
  %65 = and i32 %64, 8
  br label %Hop_ObjPhaseCompl.exit

Hop_ObjPhaseCompl.exit:                           ; preds = %56, %62
  %66 = phi i32 [ %61, %56 ], [ %65, %62 ]
  %67 = ptrtoint ptr %3 to i64
  %68 = and i64 %67, 1
  %.not.i19 = icmp eq i64 %68, 0
  br i1 %.not.i19, label %75, label %69

69:                                               ; preds = %Hop_ObjPhaseCompl.exit
  %70 = and i64 %67, -2
  %71 = inttoptr i64 %70 to ptr
  %72 = getelementptr inbounds nuw i8, ptr %71, i64 32
  %73 = load i32, ptr %72, align 8
  %.lobit.i20 = and i32 %73, 8
  %74 = xor i32 %.lobit.i20, 8
  br label %Hop_ObjPhaseCompl.exit21

75:                                               ; preds = %Hop_ObjPhaseCompl.exit
  %76 = getelementptr inbounds nuw i8, ptr %3, i64 32
  %77 = load i32, ptr %76, align 8
  %78 = and i32 %77, 8
  br label %Hop_ObjPhaseCompl.exit21

Hop_ObjPhaseCompl.exit21:                         ; preds = %69, %75
  %79 = phi i32 [ %74, %69 ], [ %78, %75 ]
  %80 = and i32 %79, %66
  %81 = getelementptr inbounds nuw i8, ptr %1, i64 32
  %82 = load i32, ptr %81, align 8
  %83 = and i32 %82, -9
  %84 = or disjoint i32 %83, %80
  store i32 %84, ptr %81, align 8
  tail call void @Hop_TableInsert(ptr noundef nonnull %0, ptr noundef nonnull %1) #10
  ret void
}